; ModuleID = '64/2325.c'
source_filename = "64/2325.c"
target datalayout = "e-m:e-p270:32:32-p271:32:32-p272:64:64-i64:64-f80:128-n8:16:32:64-S128"
target triple = "x86_64-pc-linux-gnu"

@.str = private unnamed_addr constant [3 x i8] c"%d\00", align 1
@.str.1 = private unnamed_addr constant [7 x i8] c"%d%d%d\00", align 1
@.str.2 = private unnamed_addr constant [29 x i8] c"(%d,%d,%d)-(%d,%d,%d)=%.2lf\0A\00", align 1

; Function Attrs: noinline nounwind uwtable
define dso_local i32 @main() #0 {
  %1 = alloca i32, align 4
  %2 = alloca i32, align 4
  %3 = alloca i32, align 4
  %4 = alloca i32, align 4
  %5 = alloca i32, align 4
  %6 = alloca i32, align 4
  %7 = alloca [10 x i32], align 16
  %8 = alloca [10 x i32], align 16
  %9 = alloca [10 x i32], align 16
  %10 = alloca [50 x i32], align 16
  %11 = alloca [50 x i32], align 16
  %12 = alloca [50 x double], align 16
  %13 = alloca double, align 8
  store i32 0, i32* %1, align 4
  store i32 0, i32* %6, align 4
  %14 = call i32 (i8*, ...) @__isoc99_scanf(i8* getelementptr inbounds ([3 x i8], [3 x i8]* @.str, i64 0, i64 0), i32* %2)
  store i32 0, i32* %3, align 4
  br label %15

15:                                               ; preds = %30, %0
  %16 = load i32, i32* %3, align 4
  %17 = load i32, i32* %2, align 4
  %18 = icmp slt i32 %16, %17
  br i1 %18, label %19, label %33

19:                                               ; preds = %15
  %20 = load i32, i32* %3, align 4
  %21 = sext i32 %20 to i64
  %22 = getelementptr inbounds [10 x i32], [10 x i32]* %7, i64 0, i64 %21
  %23 = load i32, i32* %3, align 4
  %24 = sext i32 %23 to i64
  %25 = getelementptr inbounds [10 x i32], [10 x i32]* %8, i64 0, i64 %24
  %26 = load i32, i32* %3, align 4
  %27 = sext i32 %26 to i64
  %28 = getelementptr inbounds [10 x i32], [10 x i32]* %9, i64 0, i64 %27
  %29 = call i32 (i8*, ...) @__isoc99_scanf(i8* getelementptr inbounds ([7 x i8], [7 x i8]* @.str.1, i64 0, i64 0), i32* %22, i32* %25, i32* %28)
  br label %30

30:                                               ; preds = %19
  %31 = load i32, i32* %3, align 4
  %32 = add nsw i32 %31, 1
  store i32 %32, i32* %3, align 4
  br label %15

33:                                               ; preds = %15
  store i32 0, i32* %3, align 4
  br label %34

34:                                               ; preds = %132, %33
  %35 = load i32, i32* %3, align 4
  %36 = load i32, i32* %2, align 4
  %37 = icmp slt i32 %35, %36
  br i1 %37, label %38, label %135

38:                                               ; preds = %34
  %39 = load i32, i32* %3, align 4
  %40 = add nsw i32 %39, 1
  store i32 %40, i32* %4, align 4
  br label %41

41:                                               ; preds = %128, %38
  %42 = load i32, i32* %4, align 4
  %43 = load i32, i32* %2, align 4
  %44 = icmp slt i32 %42, %43
  br i1 %44, label %45, label %131

45:                                               ; preds = %41
  %46 = load i32, i32* %3, align 4
  %47 = load i32, i32* %6, align 4
  %48 = sext i32 %47 to i64
  %49 = getelementptr inbounds [50 x i32], [50 x i32]* %10, i64 0, i64 %48
  store i32 %46, i32* %49, align 4
  %50 = load i32, i32* %4, align 4
  %51 = load i32, i32* %6, align 4
  %52 = sext i32 %51 to i64
  %53 = getelementptr inbounds [50 x i32], [50 x i32]* %11, i64 0, i64 %52
  store i32 %50, i32* %53, align 4
  %54 = load i32, i32* %3, align 4
  %55 = sext i32 %54 to i64
  %56 = getelementptr inbounds [10 x i32], [10 x i32]* %7, i64 0, i64 %55
  %57 = load i32, i32* %56, align 4
  %58 = load i32, i32* %4, align 4
  %59 = sext i32 %58 to i64
  %60 = getelementptr inbounds [10 x i32], [10 x i32]* %7, i64 0, i64 %59
  %61 = load i32, i32* %60, align 4
  %62 = sub nsw i32 %57, %61
  %63 = sitofp i32 %62 to double
  %64 = fmul double 1.000000e+00, %63
  %65 = load i32, i32* %3, align 4
  %66 = sext i32 %65 to i64
  %67 = getelementptr inbounds [10 x i32], [10 x i32]* %7, i64 0, i64 %66
  %68 = load i32, i32* %67, align 4
  %69 = load i32, i32* %4, align 4
  %70 = sext i32 %69 to i64
  %71 = getelementptr inbounds [10 x i32], [10 x i32]* %7, i64 0, i64 %70
  %72 = load i32, i32* %71, align 4
  %73 = sub nsw i32 %68, %72
  %74 = sitofp i32 %73 to double
  %75 = fmul double %64, %74
  %76 = load i32, i32* %3, align 4
  %77 = sext i32 %76 to i64
  %78 = getelementptr inbounds [10 x i32], [10 x i32]* %8, i64 0, i64 %77
  %79 = load i32, i32* %78, align 4
  %80 = load i32, i32* %4, align 4
  %81 = sext i32 %80 to i64
  %82 = getelementptr inbounds [10 x i32], [10 x i32]* %8, i64 0, i64 %81
  %83 = load i32, i32* %82, align 4
  %84 = sub nsw i32 %79, %83
  %85 = sitofp i32 %84 to double
  %86 = fmul double 1.000000e+00, %85
  %87 = load i32, i32* %3, align 4
  %88 = sext i32 %87 to i64
  %89 = getelementptr inbounds [10 x i32], [10 x i32]* %8, i64 0, i64 %88
  %90 = load i32, i32* %89, align 4
  %91 = load i32, i32* %4, align 4
  %92 = sext i32 %91 to i64
  %93 = getelementptr inbounds [10 x i32], [10 x i32]* %8, i64 0, i64 %92
  %94 = load i32, i32* %93, align 4
  %95 = sub nsw i32 %90, %94
  %96 = sitofp i32 %95 to double
  %97 = fmul double %86, %96
  %98 = fadd double %75, %97
  %99 = load i32, i32* %3, align 4
  %100 = sext i32 %99 to i64
  %101 = getelementptr inbounds [10 x i32], [10 x i32]* %9, i64 0, i64 %100
  %102 = load i32, i32* %101, align 4
  %103 = load i32, i32* %4, align 4
  %104 = sext i32 %103 to i64
  %105 = getelementptr inbounds [10 x i32], [10 x i32]* %9, i64 0, i64 %104
  %106 = load i32, i32* %105, align 4
  %107 = sub nsw i32 %102, %106
  %108 = sitofp i32 %107 to double
  %109 = fmul double 1.000000e+00, %108
  %110 = load i32, i32* %3, align 4
  %111 = sext i32 %110 to i64
  %112 = getelementptr inbounds [10 x i32], [10 x i32]* %9, i64 0, i64 %111
  %113 = load i32, i32* %112, align 4
  %114 = load i32, i32* %4, align 4
  %115 = sext i32 %114 to i64
  %116 = getelementptr inbounds [10 x i32], [10 x i32]* %9, i64 0, i64 %115
  %117 = load i32, i32* %116, align 4
  %118 = sub nsw i32 %113, %117
  %119 = sitofp i32 %118 to double
  %120 = fmul double %109, %119
  %121 = fadd double %98, %120
  %122 = call double @sqrt(double %121) #3
  %123 = load i32, i32* %6, align 4
  %124 = sext i32 %123 to i64
  %125 = getelementptr inbounds [50 x double], [50 x double]* %12, i64 0, i64 %124
  store double %122, double* %125, align 8
  %126 = load i32, i32* %6, align 4
  %127 = add nsw i32 %126, 1
  store i32 %127, i32* %6, align 4
  br label %128

128:                                              ; preds = %45
  %129 = load i32, i32* %4, align 4
  %130 = add nsw i32 %129, 1
  store i32 %130, i32* %4, align 4
  br label %41

131:                                              ; preds = %41
  br label %132

132:                                              ; preds = %131
  %133 = load i32, i32* %3, align 4
  %134 = add nsw i32 %133, 1
  store i32 %134, i32* %3, align 4
  br label %34

135:                                              ; preds = %34
  %136 = load i32, i32* %6, align 4
  store i32 %136, i32* %3, align 4
  br label %137

137:                                              ; preds = %214, %135
  %138 = load i32, i32* %3, align 4
  %139 = icmp sgt i32 %138, 0
  br i1 %139, label %140, label %217

140:                                              ; preds = %137
  %141 = load i32, i32* %6, align 4
  %142 = sub nsw i32 %141, 1
  store i32 %142, i32* %4, align 4
  br label %143

143:                                              ; preds = %210, %140
  %144 = load i32, i32* %4, align 4
  %145 = icmp sgt i32 %144, 0
  br i1 %145, label %146, label %213

146:                                              ; preds = %143
  %147 = load i32, i32* %4, align 4
  %148 = sext i32 %147 to i64
  %149 = getelementptr inbounds [50 x double], [50 x double]* %12, i64 0, i64 %148
  %150 = load double, double* %149, align 8
  %151 = load i32, i32* %4, align 4
  %152 = sub nsw i32 %151, 1
  %153 = sext i32 %152 to i64
  %154 = getelementptr inbounds [50 x double], [50 x double]* %12, i64 0, i64 %153
  %155 = load double, double* %154, align 8
  %156 = fcmp ogt double %150, %155
  br i1 %156, label %157, label %209

157:                                              ; preds = %146
  %158 = load i32, i32* %4, align 4
  %159 = sext i32 %158 to i64
  %160 = getelementptr inbounds [50 x double], [50 x double]* %12, i64 0, i64 %159
  %161 = load double, double* %160, align 8
  store double %161, double* %13, align 8
  %162 = load i32, i32* %4, align 4
  %163 = sub nsw i32 %162, 1
  %164 = sext i32 %163 to i64
  %165 = getelementptr inbounds [50 x double], [50 x double]* %12, i64 0, i64 %164
  %166 = load double, double* %165, align 8
  %167 = load i32, i32* %4, align 4
  %168 = sext i32 %167 to i64
  %169 = getelementptr inbounds [50 x double], [50 x double]* %12, i64 0, i64 %168
  store double %166, double* %169, align 8
  %170 = load double, double* %13, align 8
  %171 = load i32, i32* %4, align 4
  %172 = sub nsw i32 %171, 1
  %173 = sext i32 %172 to i64
  %174 = getelementptr inbounds [50 x double], [50 x double]* %12, i64 0, i64 %173
  store double %170, double* %174, align 8
  %175 = load i32, i32* %4, align 4
  %176 = sext i32 %175 to i64
  %177 = getelementptr inbounds [50 x i32], [50 x i32]* %10, i64 0, i64 %176
  %178 = load i32, i32* %177, align 4
  store i32 %178, i32* %5, align 4
  %179 = load i32, i32* %4, align 4
  %180 = sub nsw i32 %179, 1
  %181 = sext i32 %180 to i64
  %182 = getelementptr inbounds [50 x i32], [50 x i32]* %10, i64 0, i64 %181
  %183 = load i32, i32* %182, align 4
  %184 = load i32, i32* %4, align 4
  %185 = sext i32 %184 to i64
  %186 = getelementptr inbounds [50 x i32], [50 x i32]* %10, i64 0, i64 %185
  store i32 %183, i32* %186, align 4
  %187 = load i32, i32* %5, align 4
  %188 = load i32, i32* %4, align 4
  %189 = sub nsw i32 %188, 1
  %190 = sext i32 %189 to i64
  %191 = getelementptr inbounds [50 x i32], [50 x i32]* %10, i64 0, i64 %190
  store i32 %187, i32* %191, align 4
  %192 = load i32, i32* %4, align 4
  %193 = sext i32 %192 to i64
  %194 = getelementptr inbounds [50 x i32], [50 x i32]* %11, i64 0, i64 %193
  %195 = load i32, i32* %194, align 4
  store i32 %195, i32* %5, align 4
  %196 = load i32, i32* %4, align 4
  %197 = sub nsw i32 %196, 1
  %198 = sext i32 %197 to i64
  %199 = getelementptr inbounds [50 x i32], [50 x i32]* %11, i64 0, i64 %198
  %200 = load i32, i32* %199, align 4
  %201 = load i32, i32* %4, align 4
  %202 = sext i32 %201 to i64
  %203 = getelementptr inbounds [50 x i32], [50 x i32]* %11, i64 0, i64 %202
  store i32 %200, i32* %203, align 4
  %204 = load i32, i32* %5, align 4
  %205 = load i32, i32* %4, align 4
  %206 = sub nsw i32 %205, 1
  %207 = sext i32 %206 to i64
  %208 = getelementptr inbounds [50 x i32], [50 x i32]* %11, i64 0, i64 %207
  store i32 %204, i32* %208, align 4
  br label %209

209:                                              ; preds = %157, %146
  br label %210

210:                                              ; preds = %209
  %211 = load i32, i32* %4, align 4
  %212 = add nsw i32 %211, -1
  store i32 %212, i32* %4, align 4
  br label %143

213:                                              ; preds = %143
  br label %214

214:                                              ; preds = %213
  %215 = load i32, i32* %3, align 4
  %216 = add nsw i32 %215, -1
  store i32 %216, i32* %3, align 4
  br label %137

217:                                              ; preds = %137
  store i32 0, i32* %3, align 4
  br label %218

218:                                              ; preds = %270, %217
  %219 = load i32, i32* %3, align 4
  %220 = load i32, i32* %6, align 4
  %221 = icmp slt i32 %219, %220
  br i1 %221, label %222, label %273

222:                                              ; preds = %218
  %223 = load i32, i32* %3, align 4
  %224 = sext i32 %223 to i64
  %225 = getelementptr inbounds [50 x i32], [50 x i32]* %10, i64 0, i64 %224
  %226 = load i32, i32* %225, align 4
  %227 = sext i32 %226 to i64
  %228 = getelementptr inbounds [10 x i32], [10 x i32]* %7, i64 0, i64 %227
  %229 = load i32, i32* %228, align 4
  %230 = load i32, i32* %3, align 4
  %231 = sext i32 %230 to i64
  %232 = getelementptr inbounds [50 x i32], [50 x i32]* %10, i64 0, i64 %231
  %233 = load i32, i32* %232, align 4
  %234 = sext i32 %233 to i64
  %235 = getelementptr inbounds [10 x i32], [10 x i32]* %8, i64 0, i64 %234
  %236 = load i32, i32* %235, align 4
  %237 = load i32, i32* %3, align 4
  %238 = sext i32 %237 to i64
  %239 = getelementptr inbounds [50 x i32], [50 x i32]* %10, i64 0, i64 %238
  %240 = load i32, i32* %239, align 4
  %241 = sext i32 %240 to i64
  %242 = getelementptr inbounds [10 x i32], [10 x i32]* %9, i64 0, i64 %241
  %243 = load i32, i32* %242, align 4
  %244 = load i32, i32* %3, align 4
  %245 = sext i32 %244 to i64
  %246 = getelementptr inbounds [50 x i32], [50 x i32]* %11, i64 0, i64 %245
  %247 = load i32, i32* %246, align 4
  %248 = sext i32 %247 to i64
  %249 = getelementptr inbounds [10 x i32], [10 x i32]* %7, i64 0, i64 %248
  %250 = load i32, i32* %249, align 4
  %251 = load i32, i32* %3, align 4
  %252 = sext i32 %251 to i64
  %253 = getelementptr inbounds [50 x i32], [50 x i32]* %11, i64 0, i64 %252
  %254 = load i32, i32* %253, align 4
  %255 = sext i32 %254 to i64
  %256 = getelementptr inbounds [10 x i32], [10 x i32]* %8, i64 0, i64 %255
  %257 = load i32, i32* %256, align 4
  %258 = load i32, i32* %3, align 4
  %259 = sext i32 %258 to i64
  %260 = getelementptr inbounds [50 x i32], [50 x i32]* %11, i64 0, i64 %259
  %261 = load i32, i32* %260, align 4
  %262 = sext i32 %261 to i64
  %263 = getelementptr inbounds [10 x i32], [10 x i32]* %9, i64 0, i64 %262
  %264 = load i32, i32* %263, align 4
  %265 = load i32, i32* %3, align 4
  %266 = sext i32 %265 to i64
  %267 = getelementptr inbounds [50 x double], [50 x double]* %12, i64 0, i64 %266
  %268 = load double, double* %267, align 8
  %269 = call i32 (i8*, ...) @printf(i8* getelementptr inbounds ([29 x i8], [29 x i8]* @.str.2, i64 0, i64 0), i32 %229, i32 %236, i32 %243, i32 %250, i32 %257, i32 %264, double %268)
  br label %270

270:                                              ; preds = %222
  %271 = load i32, i32* %3, align 4
  %272 = add nsw i32 %271, 1
  store i32 %272, i32* %3, align 4
  br label %218

273:                                              ; preds = %218
  ret i32 0
}

declare dso_local i32 @__isoc99_scanf(i8*, ...) #1

; Function Attrs: nounwind
declare dso_local double @sqrt(double) #2

declare dso_local i32 @printf(i8*, ...) #1


!llvm.module.flags = !{!0}
!llvm.ident = !{!1}

!0 = !{i32 1, !"wchar_size", i32 4}
!1 = !{!"clang version 10.0.0-4ubuntu1 "}
